target datalayout = "e-m:e-p270:32:32-p271:32:32-p272:64:64-i64:64-i128:128-f80:128-n8:16:32:64-S128"
target triple = "x86_64-pc-linux-gnu"

%"class.gmx::HistogramSize" = type <{ i64, double, i8, [7 x i8], double, i8, [7 x i8], double, double, i8, [7 x i8] }>
%"class.gmx::AwhBiasParams" = type <{ %"class.std::vector", i32, [4 x i8], double, double, i32, [4 x i8], double, i8, i8, [6 x i8], double, double, i32, i8, [3 x i8] }>
%"class.std::vector" = type { %"struct.std::_Vector_base" }
%"struct.std::_Vector_base" = type { %"struct.std::_Vector_base<gmx::AwhDimParams, std::allocator<gmx::AwhDimParams>>::_Vector_impl" }
%"struct.std::_Vector_base<gmx::AwhDimParams, std::allocator<gmx::AwhDimParams>>::_Vector_impl" = type { %"struct.std::_Vector_base<gmx::AwhDimParams, std::allocator<gmx::AwhDimParams>>::_Vector_impl_data" }
%"struct.std::_Vector_base<gmx::AwhDimParams, std::allocator<gmx::AwhDimParams>>::_Vector_impl_data" = type { ptr, ptr, ptr }

; Function Attrs: mustprogress nounwind uwtable
define linkonce_odr noundef zeroext i1 @_ZNK3gmx13AwhBiasParams20equilibrateHistogramEv(ptr noundef nonnull align 8 dereferenceable(93) %0) #1 comdat align 2 {
  %2 = alloca ptr, align 8
  store ptr %0, ptr %2, align 8, !tbaa !9
  %3 = load ptr, ptr %2, align 8
  %4 = getelementptr inbounds nuw %"class.gmx::AwhBiasParams", ptr %3, i32 0, i32 14
  %5 = load i8, ptr %4, align 4, !tbaa !35, !range !36, !noundef !37
  %6 = trunc i8 %5 to i1
  ret i1 %6
}

; Function Attrs: mustprogress nounwind uwtable
define linkonce_odr noundef double @_ZNK3gmx13AwhBiasParams12growthFactorEv(ptr noundef nonnull align 8 dereferenceable(93) %0) #1 comdat align 2 {
  %2 = alloca ptr, align 8
  store ptr %0, ptr %2, align 8, !tbaa !9
  %3 = load ptr, ptr %2, align 8
  %4 = getelementptr inbounds nuw %"class.gmx::AwhBiasParams", ptr %3, i32 0, i32 7
  %5 = load double, ptr %4, align 8, !tbaa !34
  ret double %5
}

; Function Attrs: mustprogress nounwind uwtable
define linkonce_odr noundef i32 @_ZNK3gmx13AwhBiasParams10growthTypeEv(ptr noundef nonnull align 8 dereferenceable(93) %0) #1 comdat align 2 {
  %2 = alloca ptr, align 8
  store ptr %0, ptr %2, align 8, !tbaa !9
  %3 = load ptr, ptr %2, align 8
  %4 = getelementptr inbounds nuw %"class.gmx::AwhBiasParams", ptr %3, i32 0, i32 5
  %5 = load i32, ptr %4, align 8, !tbaa !24
  ret i32 %5
}

; Function Attrs: mustprogress uwtable
define void @_ZN3gmx13HistogramSizeC2ERKNS_13AwhBiasParamsEd(ptr noundef nonnull align 8 dereferenceable(57) %0, ptr noundef nonnull align 8 dereferenceable(93) %1, double noundef %2) unnamed_addr #0 align 2 {
  %4 = alloca ptr, align 8
  %5 = alloca ptr, align 8
  %6 = alloca double, align 8
  store ptr %0, ptr %4, align 8, !tbaa !4
  store ptr %1, ptr %5, align 8, !tbaa !9
  store double %2, ptr %6, align 8, !tbaa !11
  %7 = load ptr, ptr %4, align 8
  %8 = getelementptr inbounds nuw %"class.gmx::HistogramSize", ptr %7, i32 0, i32 0
  store i64 0, ptr %8, align 8, !tbaa !13
  %9 = getelementptr inbounds nuw %"class.gmx::HistogramSize", ptr %7, i32 0, i32 1
  %10 = load double, ptr %6, align 8, !tbaa !11
  store double %10, ptr %9, align 8, !tbaa !17
  %11 = getelementptr inbounds nuw %"class.gmx::HistogramSize", ptr %7, i32 0, i32 2
  %12 = load ptr, ptr %5, align 8, !tbaa !9
  %13 = call noundef i32 @_ZNK3gmx13AwhBiasParams10growthTypeEv(ptr noundef nonnull align 8 dereferenceable(93) %12)
  %14 = icmp eq i32 %13, 0
  %15 = zext i1 %14 to i8
  store i8 %15, ptr %11, align 8, !tbaa !18
  %16 = getelementptr inbounds nuw %"class.gmx::HistogramSize", ptr %7, i32 0, i32 4
  %17 = load ptr, ptr %5, align 8, !tbaa !9
  %18 = call noundef double @_ZNK3gmx13AwhBiasParams12growthFactorEv(ptr noundef nonnull align 8 dereferenceable(93) %17)
  store double %18, ptr %16, align 8, !tbaa !19
  %19 = getelementptr inbounds nuw %"class.gmx::HistogramSize", ptr %7, i32 0, i32 5
  %20 = load ptr, ptr %5, align 8, !tbaa !9
  %21 = call noundef zeroext i1 @_ZNK3gmx13AwhBiasParams20equilibrateHistogramEv(ptr noundef nonnull align 8 dereferenceable(93) %20)
  %22 = zext i1 %21 to i8
  store i8 %22, ptr %19, align 8, !tbaa !20
  %23 = getelementptr inbounds nuw %"class.gmx::HistogramSize", ptr %7, i32 0, i32 7
  store double 0.000000e+00, ptr %23, align 8, !tbaa !21
  %24 = getelementptr inbounds nuw %"class.gmx::HistogramSize", ptr %7, i32 0, i32 8
  store double 0.000000e+00, ptr %24, align 8, !tbaa !22
  %25 = getelementptr inbounds nuw %"class.gmx::HistogramSize", ptr %7, i32 0, i32 9
  store i8 0, ptr %25, align 8, !tbaa !23
  ret void
}