; Function Attrs: mustprogress nofree norecurse nosync nounwind willreturn memory(argmem: readwrite) uwtable
define void @_ZN3gmx13HistogramSizeC2ERKNS_13AwhBiasParamsEd(ptr noundef nonnull writeonly align 8 captures(none) dereferenceable(57) initializes((0, 17), (24, 33), (40, 57)) %0, ptr noundef nonnull readonly align 8 captures(none) dereferenceable(93) %1, double noundef %2) unnamed_addr #0 align 2 {
  store i64 0, ptr %0, align 8, !tbaa !4
  %4 = getelementptr inbounds nuw i8, ptr %0, i64 8
  store double %2, ptr %4, align 8, !tbaa !11
  %5 = getelementptr inbounds nuw i8, ptr %0, i64 16
  %6 = getelementptr inbounds nuw i8, ptr %1, i64 48
  %7 = load i32, ptr %6, align 8, !tbaa !12
  %8 = icmp eq i32 %7, 0
  %9 = zext i1 %8 to i8
  store i8 %9, ptr %5, align 8, !tbaa !23
  %10 = getelementptr inbounds nuw i8, ptr %0, i64 24
  %11 = getelementptr inbounds nuw i8, ptr %1, i64 56
  %12 = load double, ptr %11, align 8, !tbaa !24
  store double %12, ptr %10, align 8, !tbaa !25
  %13 = getelementptr inbounds nuw i8, ptr %0, i64 32
  %14 = getelementptr inbounds nuw i8, ptr %1, i64 92
  %15 = load i8, ptr %14, align 4, !tbaa !26, !range !27, !noundef !28
  store i8 %15, ptr %13, align 8, !tbaa !29
  %16 = getelementptr inbounds nuw i8, ptr %0, i64 40
  tail call void @llvm.memset.p0.i64(ptr noundef nonnull align 8 dereferenceable(17) %16, i8 0, i64 17, i1 false)
  ret void
}